target datalayout = "e-m:e-p270:32:32-p271:32:32-p272:64:64-i64:64-i128:128-f80:128-n8:16:32:64-S128"
target triple = "x86_64-pc-linux-gnu"

%struct.PLpgSQL_execstate = type { ptr, ptr, ptr, i64, i8, i32, i32, i8, i8, i8, i8, ptr, ptr, ptr, ptr, ptr, ptr, ptr, i32, i32, ptr, ptr, ptr, ptr, ptr, ptr, ptr, ptr, ptr, ptr, i64, ptr, ptr, ptr, ptr, ptr }
%struct.PLpgSQL_function = type { ptr, i32, i32, %struct.ItemPointerData, i32, i32, ptr, ptr, i32, i32, i8, i8, i8, i8, i8, i8, i32, [100 x i32], i32, i32, i32, i32, i32, i8, i32, i32, i32, ptr, i64, ptr, i32, i8, i8, ptr, i64 }
%struct.ItemPointerData = type { %struct.BlockIdData, i16 }
%struct.BlockIdData = type { i16, i16 }
%struct.PLpgSQL_variable = type { i32, i32, ptr, i32, i8, i8, ptr }
%struct.PLpgSQL_stmt = type { i32, i32, i32 }

@.str.2 = private unnamed_addr constant [11 x i8] c"plpgsql-18\00", align 1
@.str.18 = private unnamed_addr constant [32 x i8] c"PL/pgSQL function %s line %d %s\00", align 1
@.str.19 = private unnamed_addr constant [24 x i8] c"PL/pgSQL function %s %s\00", align 1
@.str.20 = private unnamed_addr constant [35 x i8] c"PL/pgSQL function %s line %d at %s\00", align 1
@.str.21 = private unnamed_addr constant [21 x i8] c"PL/pgSQL function %s\00", align 1

; Function Attrs: nounwind uwtable
define internal void @plpgsql_exec_error_callback(ptr noundef %0) #0 {
  %2 = alloca ptr, align 8
  %3 = alloca ptr, align 8
  %4 = alloca i32, align 4
  store ptr %0, ptr %2, align 8
  call void @llvm.lifetime.start.p0(i64 8, ptr %3) #12
  %5 = load ptr, ptr %2, align 8
  store ptr %5, ptr %3, align 8
  call void @llvm.lifetime.start.p0(i64 4, ptr %4) #12
  %6 = load ptr, ptr %3, align 8
  %7 = getelementptr inbounds nuw %struct.PLpgSQL_execstate, ptr %6, i32 0, i32 33
  %8 = load ptr, ptr %7, align 8
  %9 = icmp ne ptr %8, null
  br i1 %9, label %10, label %16

10:                                               ; preds = %1
  %11 = load ptr, ptr %3, align 8
  %12 = getelementptr inbounds nuw %struct.PLpgSQL_execstate, ptr %11, i32 0, i32 33
  %13 = load ptr, ptr %12, align 8
  %14 = getelementptr inbounds nuw %struct.PLpgSQL_variable, ptr %13, i32 0, i32 3
  %15 = load i32, ptr %14, align 8
  store i32 %15, ptr %4, align 4
  br label %29

16:                                               ; preds = %1
  %17 = load ptr, ptr %3, align 8
  %18 = getelementptr inbounds nuw %struct.PLpgSQL_execstate, ptr %17, i32 0, i32 32
  %19 = load ptr, ptr %18, align 8
  %20 = icmp ne ptr %19, null
  br i1 %20, label %21, label %27

21:                                               ; preds = %16
  %22 = load ptr, ptr %3, align 8
  %23 = getelementptr inbounds nuw %struct.PLpgSQL_execstate, ptr %22, i32 0, i32 32
  %24 = load ptr, ptr %23, align 8
  %25 = getelementptr inbounds nuw %struct.PLpgSQL_stmt, ptr %24, i32 0, i32 1
  %26 = load i32, ptr %25, align 4
  store i32 %26, ptr %4, align 4
  br label %28

27:                                               ; preds = %16
  store i32 0, ptr %4, align 4
  br label %28

28:                                               ; preds = %27, %21
  br label %29

29:                                               ; preds = %28, %10
  %30 = load ptr, ptr %3, align 8
  %31 = getelementptr inbounds nuw %struct.PLpgSQL_execstate, ptr %30, i32 0, i32 34
  %32 = load ptr, ptr %31, align 8
  %33 = icmp ne ptr %32, null
  br i1 %33, label %34, label %61

34:                                               ; preds = %29
  %35 = load i32, ptr %4, align 4
  %36 = icmp sgt i32 %35, 0
  br i1 %36, label %37, label %49

37:                                               ; preds = %34
  %38 = call i32 @set_errcontext_domain(ptr noundef @.str.2)
  %39 = load ptr, ptr %3, align 8
  %40 = getelementptr inbounds nuw %struct.PLpgSQL_execstate, ptr %39, i32 0, i32 0
  %41 = load ptr, ptr %40, align 8
  %42 = getelementptr inbounds nuw %struct.PLpgSQL_function, ptr %41, i32 0, i32 0
  %43 = load ptr, ptr %42, align 8
  %44 = load i32, ptr %4, align 4
  %45 = load ptr, ptr %3, align 8
  %46 = getelementptr inbounds nuw %struct.PLpgSQL_execstate, ptr %45, i32 0, i32 34
  %47 = load ptr, ptr %46, align 8
  %48 = call i32 (ptr, ...) @errcontext_msg(ptr noundef @.str.18, ptr noundef %43, i32 noundef %44, ptr noundef %47)
  br label %60

49:                                               ; preds = %34
  %50 = call i32 @set_errcontext_domain(ptr noundef @.str.2)
  %51 = load ptr, ptr %3, align 8
  %52 = getelementptr inbounds nuw %struct.PLpgSQL_execstate, ptr %51, i32 0, i32 0
  %53 = load ptr, ptr %52, align 8
  %54 = getelementptr inbounds nuw %struct.PLpgSQL_function, ptr %53, i32 0, i32 0
  %55 = load ptr, ptr %54, align 8
  %56 = load ptr, ptr %3, align 8
  %57 = getelementptr inbounds nuw %struct.PLpgSQL_execstate, ptr %56, i32 0, i32 34
  %58 = load ptr, ptr %57, align 8
  %59 = call i32 (ptr, ...) @errcontext_msg(ptr noundef @.str.19, ptr noundef %55, ptr noundef %58)
  br label %60

60:                                               ; preds = %49, %37
  br label %91

61:                                               ; preds = %29
  %62 = load ptr, ptr %3, align 8
  %63 = getelementptr inbounds nuw %struct.PLpgSQL_execstate, ptr %62, i32 0, i32 32
  %64 = load ptr, ptr %63, align 8
  %65 = icmp ne ptr %64, null
  br i1 %65, label %66, label %82

66:                                               ; preds = %61
  %67 = load i32, ptr %4, align 4
  %68 = icmp sgt i32 %67, 0
  br i1 %68, label %69, label %82

69:                                               ; preds = %66
  %70 = call i32 @set_errcontext_domain(ptr noundef @.str.2)
  %71 = load ptr, ptr %3, align 8
  %72 = getelementptr inbounds nuw %struct.PLpgSQL_execstate, ptr %71, i32 0, i32 0
  %73 = load ptr, ptr %72, align 8
  %74 = getelementptr inbounds nuw %struct.PLpgSQL_function, ptr %73, i32 0, i32 0
  %75 = load ptr, ptr %74, align 8
  %76 = load i32, ptr %4, align 4
  %77 = load ptr, ptr %3, align 8
  %78 = getelementptr inbounds nuw %struct.PLpgSQL_execstate, ptr %77, i32 0, i32 32
  %79 = load ptr, ptr %78, align 8
  %80 = call ptr @plpgsql_stmt_typename(ptr noundef %79)
  %81 = call i32 (ptr, ...) @errcontext_msg(ptr noundef @.str.20, ptr noundef %75, i32 noundef %76, ptr noundef %80)
  br label %90

82:                                               ; preds = %66, %61
  %83 = call i32 @set_errcontext_domain(ptr noundef @.str.2)
  %84 = load ptr, ptr %3, align 8
  %85 = getelementptr inbounds nuw %struct.PLpgSQL_execstate, ptr %84, i32 0, i32 0
  %86 = load ptr, ptr %85, align 8
  %87 = getelementptr inbounds nuw %struct.PLpgSQL_function, ptr %86, i32 0, i32 0
  %88 = load ptr, ptr %87, align 8
  %89 = call i32 (ptr, ...) @errcontext_msg(ptr noundef @.str.21, ptr noundef %88)
  br label %90

90:                                               ; preds = %82, %69
  br label %91

91:                                               ; preds = %90, %60
  call void @llvm.lifetime.end.p0(i64 4, ptr %4) #12
  call void @llvm.lifetime.end.p0(i64 8, ptr %3) #12
  ret void
}