; Function Attrs: nounwind uwtable
define internal void @plpgsql_exec_error_callback(ptr noundef readonly captures(none) %0) #0 {
  %2 = getelementptr inbounds nuw i8, ptr %0, i64 216
  %3 = load ptr, ptr %2, align 8
  %.not = icmp eq ptr %3, null
  br i1 %.not, label %6, label %4

4:                                                ; preds = %1
  %5 = getelementptr inbounds nuw i8, ptr %3, i64 16
  br label %11

6:                                                ; preds = %1
  %7 = getelementptr inbounds nuw i8, ptr %0, i64 208
  %8 = load ptr, ptr %7, align 8
  %.not20 = icmp eq ptr %8, null
  br i1 %.not20, label %.thread, label %9

9:                                                ; preds = %6
  %10 = getelementptr inbounds nuw i8, ptr %8, i64 4
  br label %11

11:                                               ; preds = %9, %4
  %.0.in = phi ptr [ %5, %4 ], [ %10, %9 ]
  %.0 = load i32, ptr %.0.in, align 4
  %12 = getelementptr inbounds nuw i8, ptr %0, i64 224
  %13 = load ptr, ptr %12, align 8
  %.not21 = icmp eq ptr %13, null
  br i1 %.not21, label %30, label %16

.thread:                                          ; preds = %6
  %14 = getelementptr inbounds nuw i8, ptr %0, i64 224
  %15 = load ptr, ptr %14, align 8
  %.not2123 = icmp eq ptr %15, null
  br i1 %.not2123, label %.thread28, label %.thread26

16:                                               ; preds = %11
  %17 = icmp sgt i32 %.0, 0
  br i1 %17, label %18, label %.thread26

18:                                               ; preds = %16
  %19 = tail call i32 @set_errcontext_domain(ptr noundef nonnull @.str.2) #12
  %20 = load ptr, ptr %0, align 8
  %21 = load ptr, ptr %20, align 8
  %22 = load ptr, ptr %12, align 8
  %23 = tail call i32 (ptr, ...) @errcontext_msg(ptr noundef nonnull @.str.18, ptr noundef %21, i32 noundef %.0, ptr noundef %22) #12
  br label %46

.thread26:                                        ; preds = %.thread, %16
  %24 = phi ptr [ %12, %16 ], [ %14, %.thread ]
  %25 = tail call i32 @set_errcontext_domain(ptr noundef nonnull @.str.2) #12
  %26 = load ptr, ptr %0, align 8
  %27 = load ptr, ptr %26, align 8
  %28 = load ptr, ptr %24, align 8
  %29 = tail call i32 (ptr, ...) @errcontext_msg(ptr noundef nonnull @.str.19, ptr noundef %27, ptr noundef %28) #12
  br label %46

30:                                               ; preds = %11
  %31 = getelementptr inbounds nuw i8, ptr %0, i64 208
  %32 = load ptr, ptr %31, align 8
  %33 = icmp ne ptr %32, null
  %34 = icmp sgt i32 %.0, 0
  %or.cond = select i1 %33, i1 %34, i1 false
  br i1 %or.cond, label %35, label %.thread28

35:                                               ; preds = %30
  %36 = tail call i32 @set_errcontext_domain(ptr noundef nonnull @.str.2) #12
  %37 = load ptr, ptr %0, align 8
  %38 = load ptr, ptr %37, align 8
  %39 = load ptr, ptr %31, align 8
  %40 = tail call ptr @plpgsql_stmt_typename(ptr noundef %39) #12
  %41 = tail call i32 (ptr, ...) @errcontext_msg(ptr noundef nonnull @.str.20, ptr noundef %38, i32 noundef %.0, ptr noundef %40) #12
  br label %46

.thread28:                                        ; preds = %.thread, %30
  %42 = tail call i32 @set_errcontext_domain(ptr noundef nonnull @.str.2) #12
  %43 = load ptr, ptr %0, align 8
  %44 = load ptr, ptr %43, align 8
  %45 = tail call i32 (ptr, ...) @errcontext_msg(ptr noundef nonnull @.str.21, ptr noundef %44) #12
  br label %46

46:                                               ; preds = %35, %.thread28, %18, %.thread26
  ret void
}